; Function Attrs: mustprogress uwtable
define void @_ZN6icu_776Region17cleanupRegionDataEv() local_unnamed_addr #1 align 2 personality ptr @__gxx_personality_v0 {
  br label %3

1:                                                ; preds = %10
  %2 = load ptr, ptr @_ZN6icu_77L13regionAliasesE, align 8, !tbaa !96
  %.not = icmp eq ptr %2, null
  br i1 %.not, label %12, label %11

3:                                                ; preds = %0, %10
  %indvars.iv = phi i64 [ 0, %0 ], [ %indvars.iv.next, %10 ]
  %4 = getelementptr inbounds nuw [7 x ptr], ptr @_ZN6icu_77L16availableRegionsE, i64 0, i64 %indvars.iv
  %5 = load ptr, ptr %4, align 8, !tbaa !18
  %.not13 = icmp eq ptr %5, null
  br i1 %.not13, label %10, label %6

6:                                                ; preds = %3
  %7 = load ptr, ptr %5, align 8, !tbaa !26
  %8 = getelementptr inbounds nuw i8, ptr %7, i64 8
  %9 = load ptr, ptr %8, align 8
  tail call void %9(ptr noundef nonnull align 8 dereferenceable(40) %5) #19
  store ptr null, ptr %4, align 8, !tbaa !18
  br label %10

10:                                               ; preds = %3, %6
  %indvars.iv.next = add nuw nsw i64 %indvars.iv, 1
  %exitcond.not = icmp eq i64 %indvars.iv.next, 7
  br i1 %exitcond.not, label %1, label %3, !llvm.loop !97

11:                                               ; preds = %1
  tail call void @uhash_close_77(ptr noundef nonnull %2)
  br label %12

12:                                               ; preds = %11, %1
  %13 = load ptr, ptr @_ZN6icu_77L14numericCodeMapE, align 8, !tbaa !96
  %.not10 = icmp eq ptr %13, null
  br i1 %.not10, label %15, label %14

14:                                               ; preds = %12
  tail call void @uhash_close_77(ptr noundef nonnull %13)
  br label %15

15:                                               ; preds = %14, %12
  %16 = load ptr, ptr @_ZN6icu_77L11regionIDMapE, align 8, !tbaa !96
  %.not11 = icmp eq ptr %16, null
  br i1 %.not11, label %18, label %17

17:                                               ; preds = %15
  tail call void @uhash_close_77(ptr noundef nonnull %16)
  br label %18

18:                                               ; preds = %17, %15
  %19 = load ptr, ptr @_ZN6icu_77L10allRegionsE, align 8, !tbaa !18
  %.not12 = icmp eq ptr %19, null
  br i1 %.not12, label %24, label %20

20:                                               ; preds = %18
  %21 = load ptr, ptr %19, align 8, !tbaa !26
  %22 = getelementptr inbounds nuw i8, ptr %21, i64 8
  %23 = load ptr, ptr %22, align 8
  tail call void %23(ptr noundef nonnull align 8 dereferenceable(40) %19) #19
  store ptr null, ptr @_ZN6icu_77L10allRegionsE, align 8, !tbaa !18
  br label %24

24:                                               ; preds = %20, %18
  store ptr null, ptr @_ZN6icu_77L11regionIDMapE, align 8, !tbaa !96
  store ptr null, ptr @_ZN6icu_77L14numericCodeMapE, align 8, !tbaa !96
  store ptr null, ptr @_ZN6icu_77L13regionAliasesE, align 8, !tbaa !96
  store atomic i32 0, ptr @_ZN6icu_77L19gRegionDataInitOnceE seq_cst, align 4
  ret void
}